; Function Attrs: mustprogress nounwind willreturn memory(readwrite, argmem: none) uwtable
define internal fastcc noalias noundef ptr @arkodeSymplecticMcLachlan5() unnamed_addr #2 {
  %calloc.i = tail call dereferenceable_or_null(24) ptr @calloc(i64 1, i64 24)
  %.not.i = icmp eq ptr %calloc.i, null
  br i1 %.not.i, label %ARKodeSPRKTable_Alloc.exit.thread, label %1

1:                                                ; preds = %0
  %2 = tail call noalias dereferenceable_or_null(48) ptr @malloc(i64 noundef 48) #13
  %3 = getelementptr inbounds nuw i8, ptr %calloc.i, i64 16
  store ptr %2, ptr %3, align 8, !tbaa !3
  %.not14.i = icmp eq ptr %2, null
  br i1 %.not14.i, label %ARKodeSPRKTable_Free.exit.i, label %4

ARKodeSPRKTable_Free.exit.i:                      ; preds = %1
  tail call void @free(ptr noundef nonnull %calloc.i) #14
  br label %ARKodeSPRKTable_Alloc.exit.thread

4:                                                ; preds = %1
  %5 = tail call noalias dereferenceable_or_null(48) ptr @malloc(i64 noundef 48) #13
  %6 = getelementptr inbounds nuw i8, ptr %calloc.i, i64 8
  store ptr %5, ptr %6, align 8, !tbaa !10
  %.not15.i = icmp eq ptr %5, null
  br i1 %.not15.i, label %ARKodeSPRKTable_Free.exit19.i, label %7

ARKodeSPRKTable_Free.exit19.i:                    ; preds = %4
  tail call void @free(ptr noundef nonnull %2) #14
  tail call void @free(ptr noundef nonnull %calloc.i) #14
  br label %ARKodeSPRKTable_Alloc.exit.thread

7:                                                ; preds = %4
  %8 = getelementptr inbounds nuw i8, ptr %calloc.i, i64 4
  store i32 5, ptr %calloc.i, align 8, !tbaa !12
  store i32 6, ptr %8, align 4, !tbaa !11
  store double 0x3FD5BFEEB3B74962, ptr %5, align 8, !tbaa !13
  %9 = getelementptr inbounds nuw i8, ptr %5, i64 8
  store double 0xBFB6AE93C461609A, ptr %9, align 8, !tbaa !13
  %10 = getelementptr inbounds nuw i8, ptr %5, i64 16
  store double 0x3FE2BF561503C0D5, ptr %10, align 8, !tbaa !13
  %11 = getelementptr inbounds nuw i8, ptr %5, i64 24
  store double 0xBFE34C193150CDC1, ptr %11, align 8, !tbaa !13
  %12 = getelementptr inbounds nuw i8, ptr %5, i64 32
  store double 0x3FD4B58C3AB43A42, ptr %12, align 8, !tbaa !13
  %13 = getelementptr inbounds nuw i8, ptr %5, i64 40
  store double 0x3FDC4FB03B46EE5A, ptr %13, align 8, !tbaa !13
  store double 0x3FBE90584F423289, ptr %2, align 8, !tbaa !13
  %14 = getelementptr inbounds nuw i8, ptr %2, i64 8
  store double 0x3FE65D9CEEC24DE8, ptr %14, align 8, !tbaa !13
  %15 = getelementptr inbounds nuw i8, ptr %2, i64 16
  store double 0xBFC5ED903816AD31, ptr %15, align 8, !tbaa !13
  %16 = getelementptr inbounds nuw i8, ptr %2, i64 24
  store double 0x3FD9AE664743500F, ptr %16, align 8, !tbaa !13
  %17 = getelementptr inbounds nuw i8, ptr %2, i64 32
  store double 0x3F85EC8BC3836F1E, ptr %17, align 8, !tbaa !13
  %18 = getelementptr inbounds nuw i8, ptr %2, i64 40
  store double 0xBFAE3293D549EB12, ptr %18, align 8, !tbaa !13
  br label %ARKodeSPRKTable_Alloc.exit.thread

ARKodeSPRKTable_Alloc.exit.thread:                ; preds = %0, %ARKodeSPRKTable_Free.exit.i, %ARKodeSPRKTable_Free.exit19.i, %7
  %.0 = phi ptr [ %calloc.i, %7 ], [ null, %ARKodeSPRKTable_Free.exit19.i ], [ null, %ARKodeSPRKTable_Free.exit.i ], [ null, %0 ]
  ret ptr %.0
}